target datalayout = "e-m:e-p270:32:32-p271:32:32-p272:64:64-i64:64-i128:128-f80:128-n8:16:32:64-S128"
target triple = "x86_64-unknown-linux-gnu"

%struct.QTailQLink = type { ptr, ptr }
%struct.MSGUID = type { i32, i16, i16, [8 x i8] }
%struct.BDRVVHDXState = type <{ %struct.CoMutex, i32, [4 x i8], [2 x ptr], %struct.VHDXRegionTableHeader, %struct.VHDXRegionTableEntry, %struct.VHDXRegionTableEntry, %struct.VHDXMetadataTableHeader, %struct.VHDXMetadataEntries, %struct.VHDXFileParameters, [2 x i8], i32, i32, i32, i32, [4 x i8], i64, i32, i32, i64, i32, i32, i32, [4 x i8], ptr, i64, i8, %struct.MSGUID, [7 x i8], %struct.VHDXLogEntries, %struct.VHDXParentLocatorHeader, [4 x i8], ptr, ptr, i8, [7 x i8], %struct.anon.1 }>
%struct.CoMutex = type { i32, ptr, %struct.anon.0, %struct.anon.0, i32, i32, ptr }
%struct.anon.0 = type { ptr }
%struct.VHDXRegionTableHeader = type { i32, i32, i32, i32 }
%struct.VHDXRegionTableEntry = type { %struct.MSGUID, i64, i32, i32 }
%struct.VHDXMetadataTableHeader = type { i64, i16, i16, [5 x i32] }
%struct.VHDXMetadataEntries = type <{ %struct.VHDXMetadataTableEntry, %struct.VHDXMetadataTableEntry, %struct.VHDXMetadataTableEntry, %struct.VHDXMetadataTableEntry, %struct.VHDXMetadataTableEntry, %struct.VHDXMetadataTableEntry, i16 }>
%struct.VHDXMetadataTableEntry = type { %struct.MSGUID, i32, i32, i32, i32 }
%struct.VHDXFileParameters = type { i32, i32 }
%struct.VHDXLogEntries = type { i64, i64, i32, i32, ptr, ptr, i64, i32 }
%struct.VHDXParentLocatorHeader = type { %struct.MSGUID, i16, i16 }
%struct.anon.1 = type { ptr }
%struct.BlockDriverState = type { i32, i8, i8, i8, i8, i8, ptr, ptr, ptr, %struct.anon.2, i8, [4096 x i8], [4096 x i8], [4096 x i8], [16 x i8], ptr, [4096 x i8], %struct.BlockLimits, i32, i32, i32, i32, [32 x i8], %union.anon.3, %union.anon.4, %union.anon.5, i32, [16 x %struct.anon.6], ptr, %struct.anon.7, ptr, ptr, %struct.anon.8, ptr, ptr, i32, ptr, i64, i64, %struct.QemuMutex, %struct.anon.9, %struct.Stat64, i32, i32, i32, i32, i32, i32, %struct.QemuMutex, %struct.anon.10, %struct.CoQueue, i8, i32, i8, %struct.CoMutex, ptr, ptr }
%struct.anon.2 = type { ptr }
%struct.BlockLimits = type { i32, i64, i32, i64, i32, i32, i32, i64, i32, i64, i64, i32, i8, i32, i32, i32, i32, i32, i32, i32 }
%union.anon.3 = type { %struct.QTailQLink }
%union.anon.4 = type { %struct.QTailQLink }
%union.anon.5 = type { %struct.QTailQLink }
%struct.anon.6 = type { ptr }
%struct.anon.7 = type { ptr }
%struct.anon.8 = type { ptr }
%struct.anon.9 = type { ptr }
%struct.Stat64 = type { i64 }
%struct.QemuMutex = type { %union.pthread_mutex_t, i8 }
%union.pthread_mutex_t = type { %struct.__pthread_mutex_s }
%struct.__pthread_mutex_s = type { i32, i32, i32, i32, i32, i16, i16, %struct.__pthread_internal_list }
%struct.__pthread_internal_list = type { ptr, ptr }
%struct.anon.10 = type { ptr }
%struct.CoQueue = type { %struct.anon.11 }
%struct.anon.11 = type { ptr, ptr }
%struct.BlockDriverInfo = type { i32, i32, i64, i8, i8 }

; Function Attrs: nounwind sspstrong uwtable
define internal i32 @vhdx_co_get_info(ptr noundef %bs, ptr noundef %bdi) #0 {
entry:
  %bs.addr = alloca ptr, align 8
  %bdi.addr = alloca ptr, align 8
  %s = alloca ptr, align 8
  store ptr %bs, ptr %bs.addr, align 8
  store ptr %bdi, ptr %bdi.addr, align 8
  %0 = load ptr, ptr %bs.addr, align 8
  %opaque = getelementptr inbounds %struct.BlockDriverState, ptr %0, i32 0, i32 7
  %1 = load ptr, ptr %opaque, align 8
  store ptr %1, ptr %s, align 8
  %2 = load ptr, ptr %s, align 8
  %block_size = getelementptr inbounds %struct.BDRVVHDXState, ptr %2, i32 0, i32 11
  %3 = load i32, ptr %block_size, align 4
  %4 = load ptr, ptr %bdi.addr, align 8
  %cluster_size = getelementptr inbounds %struct.BlockDriverInfo, ptr %4, i32 0, i32 0
  store i32 %3, ptr %cluster_size, align 8
  ret i32 0
}