; Function Attrs: mustprogress nofree norecurse nosync nounwind sspstrong willreturn memory(read, argmem: readwrite, inaccessiblemem: none) uwtable
define internal noundef i32 @vhdx_co_get_info(ptr noundef readonly captures(none) %bs, ptr noundef writeonly captures(none) initializes((0, 4)) %bdi) #7 {
entry:
  %opaque = getelementptr inbounds nuw i8, ptr %bs, i64 24
  %0 = load ptr, ptr %opaque, align 8
  %block_size = getelementptr inbounds nuw i8, ptr %0, i64 388
  %1 = load i32, ptr %block_size, align 4
  store i32 %1, ptr %bdi, align 8
  ret i32 0
}